target datalayout = "e-m:e-p270:32:32-p271:32:32-p272:64:64-i64:64-i128:128-f80:128-n8:16:32:64-S128"
target triple = "x86_64-pc-linux-gnu"

%struct.ossl_decoder_ctx_st = type { ptr, ptr, i32, ptr, ptr, ptr, ptr, %struct.ossl_passphrase_data_st, i32 }
%struct.ossl_passphrase_data_st = type { i32, %union.anon, i8, ptr, i64 }
%union.anon = type { %struct.anon }
%struct.anon = type { ptr, i64 }
%struct.ossl_decoder_instance_st = type { ptr, ptr, ptr, ptr, i32, i8 }
%struct.ossl_decoder_st = type { %struct.ossl_endecode_base_st, ptr, ptr, ptr, ptr, ptr, ptr, ptr, ptr, ptr }
%struct.ossl_endecode_base_st = type { ptr, i32, ptr, ptr, ptr, %struct.CRYPTO_REF_COUNT }
%struct.CRYPTO_REF_COUNT = type { i32 }

@.str = private unnamed_addr constant [46 x i8] c"../openssl/crypto/encode_decode/decoder_lib.c\00", align 1
@__func__.ossl_decoder_ctx_add_decoder_inst = private unnamed_addr constant [34 x i8] c"ossl_decoder_ctx_add_decoder_inst\00", align 1
@__func__.OSSL_DECODER_CTX_add_decoder = private unnamed_addr constant [29 x i8] c"OSSL_DECODER_CTX_add_decoder\00", align 1

; Function Attrs: inlinehint nounwind uwtable
define internal i32 @sk_OSSL_DECODER_INSTANCE_push(ptr noundef %0, ptr noundef %1) #6 {
  %3 = alloca ptr, align 8
  %4 = alloca ptr, align 8
  store ptr %0, ptr %3, align 8, !tbaa !77
  store ptr %1, ptr %4, align 8, !tbaa !30
  %5 = load ptr, ptr %3, align 8, !tbaa !77
  %6 = load ptr, ptr %4, align 8, !tbaa !30
  %7 = call i32 @OPENSSL_sk_push(ptr noundef %5, ptr noundef %6)
  ret i32 %7
}

; Function Attrs: inlinehint nounwind uwtable
define internal ptr @sk_OSSL_DECODER_INSTANCE_new_null() #6 {
  %1 = call ptr @OPENSSL_sk_new_null()
  ret ptr %1
}

; Function Attrs: nounwind uwtable
define void @ossl_decoder_instance_free(ptr noundef %0) #0 {
  %2 = alloca ptr, align 8
  store ptr %0, ptr %2, align 8, !tbaa !30
  %3 = load ptr, ptr %2, align 8, !tbaa !30
  %4 = icmp ne ptr %3, null
  br i1 %4, label %5, label %28

5:                                                ; preds = %1
  %6 = load ptr, ptr %2, align 8, !tbaa !30
  %7 = getelementptr inbounds nuw %struct.ossl_decoder_instance_st, ptr %6, i32 0, i32 0
  %8 = load ptr, ptr %7, align 8, !tbaa !70
  %9 = icmp ne ptr %8, null
  br i1 %9, label %10, label %19

10:                                               ; preds = %5
  %11 = load ptr, ptr %2, align 8, !tbaa !30
  %12 = getelementptr inbounds nuw %struct.ossl_decoder_instance_st, ptr %11, i32 0, i32 0
  %13 = load ptr, ptr %12, align 8, !tbaa !70
  %14 = getelementptr inbounds nuw %struct.ossl_decoder_st, ptr %13, i32 0, i32 2
  %15 = load ptr, ptr %14, align 8, !tbaa !72
  %16 = load ptr, ptr %2, align 8, !tbaa !30
  %17 = getelementptr inbounds nuw %struct.ossl_decoder_instance_st, ptr %16, i32 0, i32 1
  %18 = load ptr, ptr %17, align 8, !tbaa !71
  call void %15(ptr noundef %18)
  br label %19

19:                                               ; preds = %10, %5
  %20 = load ptr, ptr %2, align 8, !tbaa !30
  %21 = getelementptr inbounds nuw %struct.ossl_decoder_instance_st, ptr %20, i32 0, i32 1
  store ptr null, ptr %21, align 8, !tbaa !71
  %22 = load ptr, ptr %2, align 8, !tbaa !30
  %23 = getelementptr inbounds nuw %struct.ossl_decoder_instance_st, ptr %22, i32 0, i32 0
  %24 = load ptr, ptr %23, align 8, !tbaa !70
  call void @OSSL_DECODER_free(ptr noundef %24)
  %25 = load ptr, ptr %2, align 8, !tbaa !30
  %26 = getelementptr inbounds nuw %struct.ossl_decoder_instance_st, ptr %25, i32 0, i32 0
  store ptr null, ptr %26, align 8, !tbaa !70
  %27 = load ptr, ptr %2, align 8, !tbaa !30
  call void @CRYPTO_free(ptr noundef %27, ptr noundef @.str, i32 noundef 280)
  br label %28

28:                                               ; preds = %19, %1
  ret void
}

; Function Attrs: nounwind uwtable
define i32 @ossl_decoder_ctx_add_decoder_inst(ptr noundef %0, ptr noundef %1) #0 {
  %3 = alloca i32, align 4
  %4 = alloca ptr, align 8
  %5 = alloca ptr, align 8
  %6 = alloca i32, align 4
  %7 = alloca i32, align 4
  %8 = alloca ptr, align 8
  store ptr %0, ptr %4, align 8, !tbaa !3
  store ptr %1, ptr %5, align 8, !tbaa !30
  call void @llvm.lifetime.start.p0(i64 4, ptr %6) #7
  %9 = load ptr, ptr %4, align 8, !tbaa !3
  %10 = getelementptr inbounds nuw %struct.ossl_decoder_ctx_st, ptr %9, i32 0, i32 3
  %11 = load ptr, ptr %10, align 8, !tbaa !24
  %12 = icmp eq ptr %11, null
  br i1 %12, label %13, label %19

13:                                               ; preds = %2
  %14 = call ptr @sk_OSSL_DECODER_INSTANCE_new_null()
  %15 = load ptr, ptr %4, align 8, !tbaa !3
  %16 = getelementptr inbounds nuw %struct.ossl_decoder_ctx_st, ptr %15, i32 0, i32 3
  store ptr %14, ptr %16, align 8, !tbaa !24
  %17 = icmp eq ptr %14, null
  br i1 %17, label %18, label %19

18:                                               ; preds = %13
  call void @ERR_new()
  call void @ERR_set_debug(ptr noundef @.str, i32 noundef 333, ptr noundef @__func__.ossl_decoder_ctx_add_decoder_inst)
  call void (i32, i32, ptr, ...) @ERR_set_error(i32 noundef 60, i32 noundef 524303, ptr noundef null)
  store i32 0, ptr %3, align 4
  store i32 1, ptr %7, align 4
  br label %35

19:                                               ; preds = %13, %2
  %20 = load ptr, ptr %4, align 8, !tbaa !3
  %21 = getelementptr inbounds nuw %struct.ossl_decoder_ctx_st, ptr %20, i32 0, i32 3
  %22 = load ptr, ptr %21, align 8, !tbaa !24
  %23 = load ptr, ptr %5, align 8, !tbaa !30
  %24 = call i32 @sk_OSSL_DECODER_INSTANCE_push(ptr noundef %22, ptr noundef %23)
  %25 = icmp sgt i32 %24, 0
  %26 = zext i1 %25 to i32
  store i32 %26, ptr %6, align 4, !tbaa !10
  %27 = load i32, ptr %6, align 4, !tbaa !10
  %28 = icmp ne i32 %27, 0
  br i1 %28, label %29, label %33

29:                                               ; preds = %19
  br label %30

30:                                               ; preds = %29
  call void @llvm.lifetime.start.p0(i64 8, ptr %8) #7
  store ptr null, ptr %8, align 8, !tbaa !8
  call void @llvm.lifetime.end.p0(i64 8, ptr %8) #7
  br label %31

31:                                               ; preds = %30
  br label %32

32:                                               ; preds = %31
  br label %33

33:                                               ; preds = %32, %19
  %34 = load i32, ptr %6, align 4, !tbaa !10
  store i32 %34, ptr %3, align 4
  store i32 1, ptr %7, align 4
  br label %35

35:                                               ; preds = %33, %18
  call void @llvm.lifetime.end.p0(i64 4, ptr %6) #7
  %36 = load i32, ptr %3, align 4
  ret i32 %36
}

; Function Attrs: nounwind uwtable
define i32 @OSSL_DECODER_CTX_add_decoder(ptr noundef %0, ptr noundef %1) #0 {
  %3 = alloca i32, align 4
  %4 = alloca ptr, align 8
  %5 = alloca ptr, align 8
  %6 = alloca ptr, align 8
  %7 = alloca ptr, align 8
  %8 = alloca ptr, align 8
  %9 = alloca ptr, align 8
  %10 = alloca i32, align 4
  store ptr %0, ptr %4, align 8, !tbaa !3
  store ptr %1, ptr %5, align 8, !tbaa !32
  call void @llvm.lifetime.start.p0(i64 8, ptr %6) #7
  store ptr null, ptr %6, align 8, !tbaa !30
  call void @llvm.lifetime.start.p0(i64 8, ptr %7) #7
  store ptr null, ptr %7, align 8, !tbaa !60
  call void @llvm.lifetime.start.p0(i64 8, ptr %8) #7
  store ptr null, ptr %8, align 8, !tbaa !27
  call void @llvm.lifetime.start.p0(i64 8, ptr %9) #7
  store ptr null, ptr %9, align 8, !tbaa !27
  %11 = load ptr, ptr %4, align 8, !tbaa !3
  %12 = icmp ne ptr %11, null
  %13 = zext i1 %12 to i32
  %14 = icmp ne i32 %13, 0
  %15 = xor i1 %14, true
  %16 = xor i1 %15, true
  %17 = zext i1 %16 to i32
  %18 = sext i32 %17 to i64
  %19 = call i64 @llvm.expect.i64(i64 %18, i64 1)
  %20 = icmp ne i64 %19, 0
  br i1 %20, label %21, label %32

21:                                               ; preds = %2
  %22 = load ptr, ptr %5, align 8, !tbaa !32
  %23 = icmp ne ptr %22, null
  %24 = zext i1 %23 to i32
  %25 = icmp ne i32 %24, 0
  %26 = xor i1 %25, true
  %27 = xor i1 %26, true
  %28 = zext i1 %27 to i32
  %29 = sext i32 %28 to i64
  %30 = call i64 @llvm.expect.i64(i64 %29, i64 1)
  %31 = icmp ne i64 %30, 0
  br i1 %31, label %33, label %32

32:                                               ; preds = %21, %2
  call void @ERR_new()
  call void @ERR_set_debug(ptr noundef @.str, i32 noundef 359, ptr noundef @__func__.OSSL_DECODER_CTX_add_decoder)
  call void (i32, i32, ptr, ...) @ERR_set_error(i32 noundef 60, i32 noundef 786690, ptr noundef null)
  store i32 0, ptr %3, align 4
  store i32 1, ptr %10, align 4
  br label %67

33:                                               ; preds = %21
  %34 = load ptr, ptr %5, align 8, !tbaa !32
  %35 = call ptr @OSSL_DECODER_get0_provider(ptr noundef %34)
  store ptr %35, ptr %7, align 8, !tbaa !60
  %36 = load ptr, ptr %7, align 8, !tbaa !60
  %37 = call ptr @OSSL_PROVIDER_get0_provider_ctx(ptr noundef %36)
  store ptr %37, ptr %9, align 8, !tbaa !27
  %38 = load ptr, ptr %5, align 8, !tbaa !32
  %39 = getelementptr inbounds nuw %struct.ossl_decoder_st, ptr %38, i32 0, i32 1
  %40 = load ptr, ptr %39, align 8, !tbaa !75
  %41 = load ptr, ptr %9, align 8, !tbaa !27
  %42 = call ptr %40(ptr noundef %41)
  store ptr %42, ptr %8, align 8, !tbaa !27
  %43 = icmp eq ptr %42, null
  br i1 %43, label %49, label %44

44:                                               ; preds = %33
  %45 = load ptr, ptr %5, align 8, !tbaa !32
  %46 = load ptr, ptr %8, align 8, !tbaa !27
  %47 = call ptr @ossl_decoder_instance_new(ptr noundef %45, ptr noundef %46)
  store ptr %47, ptr %6, align 8, !tbaa !30
  %48 = icmp eq ptr %47, null
  br i1 %48, label %49, label %50

49:                                               ; preds = %44, %33
  br label %57

50:                                               ; preds = %44
  store ptr null, ptr %8, align 8, !tbaa !27
  %51 = load ptr, ptr %4, align 8, !tbaa !3
  %52 = load ptr, ptr %6, align 8, !tbaa !30
  %53 = call i32 @ossl_decoder_ctx_add_decoder_inst(ptr noundef %51, ptr noundef %52)
  %54 = icmp ne i32 %53, 0
  br i1 %54, label %56, label %55

55:                                               ; preds = %50
  br label %57

56:                                               ; preds = %50
  store i32 1, ptr %3, align 4
  store i32 1, ptr %10, align 4
  br label %67

57:                                               ; preds = %55, %49
  %58 = load ptr, ptr %6, align 8, !tbaa !30
  call void @ossl_decoder_instance_free(ptr noundef %58)
  %59 = load ptr, ptr %8, align 8, !tbaa !27
  %60 = icmp ne ptr %59, null
  br i1 %60, label %61, label %66

61:                                               ; preds = %57
  %62 = load ptr, ptr %5, align 8, !tbaa !32
  %63 = getelementptr inbounds nuw %struct.ossl_decoder_st, ptr %62, i32 0, i32 2
  %64 = load ptr, ptr %63, align 8, !tbaa !72
  %65 = load ptr, ptr %8, align 8, !tbaa !27
  call void %64(ptr noundef %65)
  br label %66

66:                                               ; preds = %61, %57
  store i32 0, ptr %3, align 4
  store i32 1, ptr %10, align 4
  br label %67

67:                                               ; preds = %66, %56, %32
  call void @llvm.lifetime.end.p0(i64 8, ptr %9) #7
  call void @llvm.lifetime.end.p0(i64 8, ptr %8) #7
  call void @llvm.lifetime.end.p0(i64 8, ptr %7) #7
  call void @llvm.lifetime.end.p0(i64 8, ptr %6) #7
  %68 = load i32, ptr %3, align 4
  ret i32 %68
}