; Function Attrs: nounwind uwtable
define range(i32 0, 2) i32 @OSSL_DECODER_CTX_add_decoder(ptr noundef captures(address_is_null) %0, ptr noundef %1) local_unnamed_addr #0 {
  %.not = icmp eq ptr %0, null
  %.not21 = icmp eq ptr %1, null
  %or.cond = or i1 %.not, %.not21
  br i1 %or.cond, label %3, label %4, !prof !56

3:                                                ; preds = %2
  tail call void @ERR_new() #8
  tail call void @ERR_set_debug(ptr noundef nonnull @.str, i32 noundef 359, ptr noundef nonnull @__func__.OSSL_DECODER_CTX_add_decoder) #8
  tail call void (i32, i32, ptr, ...) @ERR_set_error(i32 noundef 60, i32 noundef 786690, ptr noundef null) #8
  br label %ossl_decoder_instance_free.exit.thread32

4:                                                ; preds = %2
  %5 = tail call ptr @OSSL_DECODER_get0_provider(ptr noundef nonnull %1) #8
  %6 = tail call ptr @OSSL_PROVIDER_get0_provider_ctx(ptr noundef %5) #8
  %7 = getelementptr inbounds nuw i8, ptr %1, i64 48
  %8 = load ptr, ptr %7, align 8, !tbaa !54
  %9 = tail call ptr %8(ptr noundef %6) #8
  %10 = icmp eq ptr %9, null
  br i1 %10, label %ossl_decoder_instance_free.exit.thread32, label %11

11:                                               ; preds = %4
  %12 = tail call ptr @ossl_decoder_instance_new(ptr noundef nonnull %1, ptr noundef nonnull %9)
  %13 = icmp eq ptr %12, null
  br i1 %13, label %ossl_decoder_instance_free.exit, label %14

14:                                               ; preds = %11
  %15 = getelementptr inbounds nuw i8, ptr %0, i64 24
  %16 = load ptr, ptr %15, align 8, !tbaa !3
  %17 = icmp eq ptr %16, null
  br i1 %17, label %18, label %ossl_decoder_ctx_add_decoder_inst.exit

18:                                               ; preds = %14
  %19 = tail call ptr @OPENSSL_sk_new_null() #8
  store ptr %19, ptr %15, align 8, !tbaa !3
  %20 = icmp eq ptr %19, null
  br i1 %20, label %ossl_decoder_ctx_add_decoder_inst.exit.thread, label %ossl_decoder_ctx_add_decoder_inst.exit

ossl_decoder_ctx_add_decoder_inst.exit.thread:    ; preds = %18
  tail call void @ERR_new() #8
  tail call void @ERR_set_debug(ptr noundef nonnull @.str, i32 noundef 333, ptr noundef nonnull @__func__.ossl_decoder_ctx_add_decoder_inst) #8
  tail call void (i32, i32, ptr, ...) @ERR_set_error(i32 noundef 60, i32 noundef 524303, ptr noundef null) #8
  br label %24

ossl_decoder_ctx_add_decoder_inst.exit:           ; preds = %14, %18
  %21 = phi ptr [ %19, %18 ], [ %16, %14 ]
  %22 = tail call i32 @OPENSSL_sk_push(ptr noundef nonnull %21, ptr noundef nonnull %12) #8
  %23 = icmp slt i32 %22, 1
  br i1 %23, label %24, label %ossl_decoder_instance_free.exit.thread32

24:                                               ; preds = %ossl_decoder_ctx_add_decoder_inst.exit, %ossl_decoder_ctx_add_decoder_inst.exit.thread
  %25 = load ptr, ptr %12, align 8, !tbaa !23
  %.not9.i = icmp eq ptr %25, null
  br i1 %.not9.i, label %ossl_decoder_instance_free.exit.thread, label %26

26:                                               ; preds = %24
  %27 = getelementptr inbounds nuw i8, ptr %25, i64 56
  %28 = load ptr, ptr %27, align 8, !tbaa !48
  %29 = getelementptr inbounds nuw i8, ptr %12, i64 8
  %30 = load ptr, ptr %29, align 8, !tbaa !32
  tail call void %28(ptr noundef %30) #8
  %.pre.i = load ptr, ptr %12, align 8, !tbaa !23
  br label %ossl_decoder_instance_free.exit.thread

ossl_decoder_instance_free.exit.thread:           ; preds = %24, %26
  %31 = phi ptr [ %.pre.i, %26 ], [ null, %24 ]
  %32 = getelementptr inbounds nuw i8, ptr %12, i64 8
  store ptr null, ptr %32, align 8, !tbaa !32
  tail call void @OSSL_DECODER_free(ptr noundef %31) #8
  store ptr null, ptr %12, align 8, !tbaa !23
  tail call void @CRYPTO_free(ptr noundef nonnull %12, ptr noundef nonnull @.str, i32 noundef 280) #8
  br label %ossl_decoder_instance_free.exit.thread32

ossl_decoder_instance_free.exit:                  ; preds = %11
  %33 = getelementptr inbounds nuw i8, ptr %1, i64 56
  %34 = load ptr, ptr %33, align 8, !tbaa !48
  tail call void %34(ptr noundef nonnull %9) #8
  br label %ossl_decoder_instance_free.exit.thread32

ossl_decoder_instance_free.exit.thread32:         ; preds = %4, %ossl_decoder_instance_free.exit.thread, %ossl_decoder_instance_free.exit, %ossl_decoder_ctx_add_decoder_inst.exit, %3
  %.015 = phi i32 [ 0, %3 ], [ 1, %ossl_decoder_ctx_add_decoder_inst.exit ], [ 0, %ossl_decoder_instance_free.exit ], [ 0, %ossl_decoder_instance_free.exit.thread ], [ 0, %4 ]
  ret i32 %.015
}